target datalayout = "e-m:e-p270:32:32-p271:32:32-p272:64:64-i64:64-i128:128-f80:128-n8:16:32:64-S128"
target triple = "x86_64-pc-linux-gnu"

%struct.winsize = type { i16, i16, i16, i16 }

@term_columns_guessed = internal global i32 0, align 4
@.str.7 = private unnamed_addr constant [8 x i8] c"COLUMNS\00", align 1
@term_columns.term_columns_at_startup = internal global i32 0, align 4

; Function Attrs: inlinehint nounwind willreturn memory(read) uwtable
define available_externally i32 @atoi(ptr noundef nonnull %0) #6 {
  %2 = alloca ptr, align 8
  store ptr %0, ptr %2, align 8, !tbaa !13
  %3 = load ptr, ptr %2, align 8, !tbaa !13
  %4 = call i64 @strtol(ptr noundef %3, ptr noundef null, i32 noundef 10) #8
  %5 = trunc i64 %4 to i32
  ret i32 %5
}

; Function Attrs: nounwind uwtable
define dso_local i32 @term_columns() #0 {
  %1 = alloca i32, align 4
  %2 = alloca ptr, align 8
  %3 = alloca i32, align 4
  %4 = alloca i32, align 4
  %5 = alloca %struct.winsize, align 2
  call void @llvm.lifetime.start.p0(i64 8, ptr %2) #8
  call void @llvm.lifetime.start.p0(i64 4, ptr %3) #8
  %6 = load i32, ptr @term_columns.term_columns_at_startup, align 4, !tbaa !4
  %7 = icmp ne i32 %6, 0
  br i1 %7, label %8, label %10

8:                                                ; preds = %0
  %9 = load i32, ptr @term_columns.term_columns_at_startup, align 4, !tbaa !4
  store i32 %9, ptr %1, align 4
  store i32 1, ptr %4, align 4
  br label %35

10:                                               ; preds = %0
  store i32 80, ptr @term_columns.term_columns_at_startup, align 4, !tbaa !4
  store i32 1, ptr @term_columns_guessed, align 4, !tbaa !4
  %11 = call ptr @getenv(ptr noundef @.str.7) #8
  store ptr %11, ptr %2, align 8, !tbaa !13
  %12 = load ptr, ptr %2, align 8, !tbaa !13
  %13 = icmp ne ptr %12, null
  br i1 %13, label %14, label %20

14:                                               ; preds = %10
  %15 = load ptr, ptr %2, align 8, !tbaa !13
  %16 = call i32 @atoi(ptr noundef %15) #9
  store i32 %16, ptr %3, align 4, !tbaa !4
  %17 = icmp sgt i32 %16, 0
  br i1 %17, label %18, label %20

18:                                               ; preds = %14
  %19 = load i32, ptr %3, align 4, !tbaa !4
  store i32 %19, ptr @term_columns.term_columns_at_startup, align 4, !tbaa !4
  store i32 0, ptr @term_columns_guessed, align 4, !tbaa !4
  br label %33

20:                                               ; preds = %14, %10
  call void @llvm.lifetime.start.p0(i64 8, ptr %5) #8
  %21 = call i32 (i32, i64, ...) @ioctl(i32 noundef 1, i64 noundef 21523, ptr noundef %5) #8
  %22 = icmp ne i32 %21, 0
  br i1 %22, label %32, label %23

23:                                               ; preds = %20
  %24 = getelementptr inbounds nuw %struct.winsize, ptr %5, i32 0, i32 1
  %25 = load i16, ptr %24, align 2, !tbaa !32
  %26 = zext i16 %25 to i32
  %27 = icmp ne i32 %26, 0
  br i1 %27, label %28, label %32

28:                                               ; preds = %23
  %29 = getelementptr inbounds nuw %struct.winsize, ptr %5, i32 0, i32 1
  %30 = load i16, ptr %29, align 2, !tbaa !32
  %31 = zext i16 %30 to i32
  store i32 %31, ptr @term_columns.term_columns_at_startup, align 4, !tbaa !4
  store i32 0, ptr @term_columns_guessed, align 4, !tbaa !4
  br label %32

32:                                               ; preds = %28, %23, %20
  call void @llvm.lifetime.end.p0(i64 8, ptr %5) #8
  br label %33

33:                                               ; preds = %32, %18
  %34 = load i32, ptr @term_columns.term_columns_at_startup, align 4, !tbaa !4
  store i32 %34, ptr %1, align 4
  store i32 1, ptr %4, align 4
  br label %35

35:                                               ; preds = %33, %8
  call void @llvm.lifetime.end.p0(i64 4, ptr %3) #8
  call void @llvm.lifetime.end.p0(i64 8, ptr %2) #8
  %36 = load i32, ptr %1, align 4
  ret i32 %36
}