; Function Attrs: nounwind uwtable
define dso_local range(i32 0, -2147483648) i32 @term_columns() local_unnamed_addr #0 {
  %1 = alloca %struct.winsize, align 2
  %2 = load i32, ptr @term_columns.term_columns_at_startup, align 4, !tbaa !4
  %.not = icmp eq i32 %2, 0
  br i1 %.not, label %3, label %19

3:                                                ; preds = %0
  store i32 80, ptr @term_columns.term_columns_at_startup, align 4, !tbaa !4
  store i1 true, ptr @term_columns_guessed, align 4
  %4 = tail call ptr @getenv(ptr noundef nonnull @.str.7) #12
  %.not10 = icmp eq ptr %4, null
  br i1 %.not10, label %10, label %5

5:                                                ; preds = %3
  %6 = tail call i64 @strtol(ptr noundef nonnull captures(none) %4, ptr noundef null, i32 noundef 10) #12
  %7 = trunc i64 %6 to i32
  %8 = icmp sgt i32 %7, 0
  br i1 %8, label %9, label %10

9:                                                ; preds = %5
  store i32 %7, ptr @term_columns.term_columns_at_startup, align 4, !tbaa !4
  store i1 false, ptr @term_columns_guessed, align 4
  br label %19

10:                                               ; preds = %5, %3
  call void @llvm.lifetime.start.p0(i64 8, ptr nonnull %1) #12
  %11 = call i32 (i32, i64, ...) @ioctl(i32 noundef 1, i64 noundef 21523, ptr noundef nonnull %1) #12
  %12 = icmp eq i32 %11, 0
  %13 = getelementptr inbounds nuw i8, ptr %1, i64 2
  %14 = load i16, ptr %13, align 2
  %15 = icmp ne i16 %14, 0
  %or.cond = select i1 %12, i1 %15, i1 false
  br i1 %or.cond, label %16, label %._crit_edge

._crit_edge:                                      ; preds = %10
  %.pre.pre = load i32, ptr @term_columns.term_columns_at_startup, align 4, !tbaa !4
  br label %18

16:                                               ; preds = %10
  %17 = zext i16 %14 to i32
  store i32 %17, ptr @term_columns.term_columns_at_startup, align 4, !tbaa !4
  store i1 false, ptr @term_columns_guessed, align 4
  br label %18

18:                                               ; preds = %._crit_edge, %16
  %.pre = phi i32 [ %.pre.pre, %._crit_edge ], [ %17, %16 ]
  call void @llvm.lifetime.end.p0(i64 8, ptr nonnull %1) #12
  br label %19

19:                                               ; preds = %9, %18, %0
  %.0 = phi i32 [ %2, %0 ], [ %.pre, %18 ], [ %7, %9 ]
  ret i32 %.0
}